target datalayout = "e-m:e-p270:32:32-p271:32:32-p272:64:64-i64:64-i128:128-f80:128-n8:16:32:64-S128"
target triple = "x86_64-pc-linux-gnu"

%struct.PJconsts = type { ptr, ptr, ptr, ptr, ptr, ptr, ptr, ptr, ptr, ptr, ptr, ptr, i32, ptr, ptr, ptr, ptr, ptr, ptr, ptr, ptr, double, double, double, double, double, double, double, double, double, double, double, double, double, double, double, double, double, double, double, double, double, double, i32, i32, i32, i32, i32, i32, i32, i32, i32, i32, i32, ptr, ptr, ptr, ptr, ptr, ptr, double, double, double, double, double, double, double, double, double, double, double, i32, [7 x double], i32, ptr, ptr, double, double, i32, [4 x i8], %"class.std::shared_ptr", i8, double, i8, %"class.std::__cxx11::basic_string", %"class.std::__cxx11::basic_string", %"class.std::__cxx11::basic_string", i8, %"class.std::vector", i32, %"class.std::vector.3", i32, i8, i8, i8, ptr }
%"class.std::shared_ptr" = type { %"class.std::__shared_ptr" }
%"class.std::__shared_ptr" = type { ptr, %"class.std::__shared_count" }
%"class.std::__shared_count" = type { ptr }
%"class.std::__cxx11::basic_string" = type { %"struct.std::__cxx11::basic_string<char>::_Alloc_hider", i64, %union.anon }
%"struct.std::__cxx11::basic_string<char>::_Alloc_hider" = type { ptr }
%union.anon = type { i64, [8 x i8] }
%"class.std::vector" = type { %"struct.std::_Vector_base" }
%"struct.std::_Vector_base" = type { %"struct.std::_Vector_base<osgeo::proj::operation::GridDescription, std::allocator<osgeo::proj::operation::GridDescription>>::_Vector_impl" }
%"struct.std::_Vector_base<osgeo::proj::operation::GridDescription, std::allocator<osgeo::proj::operation::GridDescription>>::_Vector_impl" = type { %"struct.std::_Vector_base<osgeo::proj::operation::GridDescription, std::allocator<osgeo::proj::operation::GridDescription>>::_Vector_impl_data" }
%"struct.std::_Vector_base<osgeo::proj::operation::GridDescription, std::allocator<osgeo::proj::operation::GridDescription>>::_Vector_impl_data" = type { ptr, ptr, ptr }
%"class.std::vector.3" = type { %"struct.std::_Vector_base.4" }
%"struct.std::_Vector_base.4" = type { %"struct.std::_Vector_base<PJCoordOperation, std::allocator<PJCoordOperation>>::_Vector_impl" }
%"struct.std::_Vector_base<PJCoordOperation, std::allocator<PJCoordOperation>>::_Vector_impl" = type { %"struct.std::_Vector_base<PJCoordOperation, std::allocator<PJCoordOperation>>::_Vector_impl_data" }
%"struct.std::_Vector_base<PJCoordOperation, std::allocator<PJCoordOperation>>::_Vector_impl_data" = type { ptr, ptr, ptr }
%"struct.(anonymous namespace)::pj_opaque_helmert" = type { %struct.PJ_XYZ, %struct.PJ_XYZ, %struct.PJ_XYZ, %struct.PJ_XYZ, %struct.PJ_OPK, %struct.PJ_OPK, %struct.PJ_OPK, double, double, double, double, double, double, [3 x [3 x double]], double, double, i32, i32, i32, i32 }
%struct.PJ_XYZ = type { double, double, double }
%struct.PJ_OPK = type { double, double, double }
%struct.PJ_LPZ = type { double, double, double }
%struct.PJ_XYZT = type { double, double, double, double }

; Function Attrs: mustprogress uwtable
define internal void @_ZL18helmert_reverse_4dR8PJ_COORDP8PJconsts(ptr noundef nonnull align 8 dereferenceable(32) %0, ptr noundef %1) #0 {
  %3 = alloca ptr, align 8
  %4 = alloca ptr, align 8
  %5 = alloca ptr, align 8
  %6 = alloca double, align 8
  %7 = alloca %struct.PJ_LPZ, align 8
  %8 = alloca %struct.PJ_XYZ, align 8
  store ptr %0, ptr %3, align 8, !tbaa !89
  store ptr %1, ptr %4, align 8, !tbaa !3
  call void @llvm.lifetime.start.p0(i64 8, ptr %5) #10
  %9 = load ptr, ptr %4, align 8, !tbaa !3
  %10 = getelementptr inbounds nuw %struct.PJconsts, ptr %9, i32 0, i32 11
  %11 = load ptr, ptr %10, align 8, !tbaa !48
  store ptr %11, ptr %5, align 8, !tbaa !49
  call void @llvm.lifetime.start.p0(i64 8, ptr %6) #10
  %12 = load ptr, ptr %3, align 8, !tbaa !89
  %13 = getelementptr inbounds nuw %struct.PJ_XYZT, ptr %12, i32 0, i32 3
  %14 = load double, ptr %13, align 8, !tbaa !52
  %15 = fcmp oeq double %14, 0x7FF0000000000000
  br i1 %15, label %16, label %20

16:                                               ; preds = %2
  %17 = load ptr, ptr %5, align 8, !tbaa !49
  %18 = getelementptr inbounds nuw %"struct.(anonymous namespace)::pj_opaque_helmert", ptr %17, i32 0, i32 14
  %19 = load double, ptr %18, align 8, !tbaa !74
  br label %24

20:                                               ; preds = %2
  %21 = load ptr, ptr %3, align 8, !tbaa !89
  %22 = getelementptr inbounds nuw %struct.PJ_XYZT, ptr %21, i32 0, i32 3
  %23 = load double, ptr %22, align 8, !tbaa !52
  br label %24

24:                                               ; preds = %20, %16
  %25 = phi double [ %19, %16 ], [ %23, %20 ]
  store double %25, ptr %6, align 8, !tbaa !53
  %26 = load double, ptr %6, align 8, !tbaa !53
  %27 = load ptr, ptr %5, align 8, !tbaa !49
  %28 = getelementptr inbounds nuw %"struct.(anonymous namespace)::pj_opaque_helmert", ptr %27, i32 0, i32 15
  %29 = load double, ptr %28, align 8, !tbaa !91
  %30 = fcmp une double %26, %29
  br i1 %30, label %31, label %37

31:                                               ; preds = %24
  %32 = load double, ptr %6, align 8, !tbaa !53
  %33 = load ptr, ptr %5, align 8, !tbaa !49
  %34 = getelementptr inbounds nuw %"struct.(anonymous namespace)::pj_opaque_helmert", ptr %33, i32 0, i32 15
  store double %32, ptr %34, align 8, !tbaa !91
  %35 = load ptr, ptr %4, align 8, !tbaa !3
  call void @_ZL17update_parametersP8PJconsts(ptr noundef %35)
  %36 = load ptr, ptr %4, align 8, !tbaa !3
  call void @_ZL16build_rot_matrixP8PJconsts(ptr noundef %36)
  br label %37

37:                                               ; preds = %31, %24
  call void @llvm.lifetime.start.p0(i64 24, ptr %7) #10
  %38 = load ptr, ptr %3, align 8, !tbaa !89
  call void @llvm.memcpy.p0.p0.i64(ptr align 8 %8, ptr align 8 %38, i64 24, i1 false), !tbaa.struct !75
  %39 = load ptr, ptr %4, align 8, !tbaa !3
  call void @_ZL18helmert_reverse_3d6PJ_XYZP8PJconsts(ptr dead_on_unwind writable sret(%struct.PJ_LPZ) align 8 %7, ptr noundef byval(%struct.PJ_XYZ) align 8 %8, ptr noundef %39)
  %40 = load ptr, ptr %3, align 8, !tbaa !89
  call void @llvm.memcpy.p0.p0.i64(ptr align 8 %40, ptr align 8 %7, i64 24, i1 false), !tbaa.struct !75
  call void @llvm.lifetime.end.p0(i64 24, ptr %7) #10
  call void @llvm.lifetime.end.p0(i64 8, ptr %6) #10
  call void @llvm.lifetime.end.p0(i64 8, ptr %5) #10
  ret void
}